; Function Attrs: mustprogress nounwind uwtable
define internal void @_ZN12_GLOBAL__N_127TopLevelDeclTrackerConsumer33HandleTopLevelDeclInObjCContainerEN5clang12DeclGroupRefE(ptr noundef nonnull readonly align 8 captures(none) dereferenceable(32) %0, ptr %1) unnamed_addr #0 align 2 {
  %3 = alloca %"class.clang::DeclGroupRef", align 8
  store ptr %1, ptr %3, align 8
  %4 = ptrtoint ptr %1 to i64
  %5 = and i64 %4, 1
  %6 = icmp eq i64 %5, 0
  %.not.i = icmp eq ptr %1, null
  %7 = select i1 %.not.i, ptr null, ptr %3
  %8 = and i64 %4, -2
  %9 = inttoptr i64 %8 to ptr
  %10 = getelementptr inbounds nuw i8, ptr %9, i64 8
  %.0.i = select i1 %6, ptr %7, ptr %10
  br i1 %6, label %11, label %14

11:                                               ; preds = %2
  %12 = getelementptr inbounds nuw i8, ptr %3, i64 8
  %13 = select i1 %.not.i, ptr null, ptr %12
  br label %_ZN5clang12DeclGroupRef3endEv.exit

14:                                               ; preds = %2
  %15 = load i32, ptr %9, align 8
  %16 = zext i32 %15 to i64
  %17 = getelementptr inbounds nuw ptr, ptr %10, i64 %16
  br label %_ZN5clang12DeclGroupRef3endEv.exit

_ZN5clang12DeclGroupRef3endEv.exit:               ; preds = %11, %14
  %.0.i8 = phi ptr [ %13, %11 ], [ %17, %14 ]
  %.not10 = icmp eq ptr %.0.i, %.0.i8
  br i1 %.not10, label %._crit_edge, label %.lr.ph

.lr.ph:                                           ; preds = %_ZN5clang12DeclGroupRef3endEv.exit, %.lr.ph
  %.011 = phi ptr [ %19, %.lr.ph ], [ %.0.i, %_ZN5clang12DeclGroupRef3endEv.exit ]
  %18 = load ptr, ptr %.011, align 8
  call fastcc void @_ZN12_GLOBAL__N_127TopLevelDeclTrackerConsumer18handleTopLevelDeclEPN5clang4DeclE(ptr noundef nonnull align 8 dereferenceable(32) %0, ptr noundef %18)
  %19 = getelementptr inbounds nuw i8, ptr %.011, i64 8
  %.not = icmp eq ptr %19, %.0.i8
  br i1 %.not, label %._crit_edge, label %.lr.ph

._crit_edge:                                      ; preds = %.lr.ph, %_ZN5clang12DeclGroupRef3endEv.exit
  ret void
}